target datalayout = "e-m:e-p270:32:32-p271:32:32-p272:64:64-i64:64-i128:128-f80:128-n8:16:32:64-S128"
target triple = "x86_64-unknown-linux-gnu"

@.str.70 = private unnamed_addr constant [24 x i8] c"internal error at %s:%d\00", align 1
@.str.71 = private unnamed_addr constant [8 x i8] c"parse.c\00", align 1

; Function Attrs: nounwind uwtable
define internal void @write_buf(ptr noundef %buf, i64 noundef %val, i32 noundef %sz) #0 {
entry:
  %buf.addr = alloca ptr, align 8
  %val.addr = alloca i64, align 8
  %sz.addr = alloca i32, align 4
  store ptr %buf, ptr %buf.addr, align 8
  store i64 %val, ptr %val.addr, align 8
  store i32 %sz, ptr %sz.addr, align 4
  %0 = load i32, ptr %sz.addr, align 4
  %cmp = icmp eq i32 %0, 1
  br i1 %cmp, label %if.then, label %if.else

if.then:                                          ; preds = %entry
  %1 = load i64, ptr %val.addr, align 8
  %conv = trunc i64 %1 to i8
  %2 = load ptr, ptr %buf.addr, align 8
  store i8 %conv, ptr %2, align 1
  br label %if.end17

if.else:                                          ; preds = %entry
  %3 = load i32, ptr %sz.addr, align 4
  %cmp1 = icmp eq i32 %3, 2
  br i1 %cmp1, label %if.then3, label %if.else5

if.then3:                                         ; preds = %if.else
  %4 = load i64, ptr %val.addr, align 8
  %conv4 = trunc i64 %4 to i16
  %5 = load ptr, ptr %buf.addr, align 8
  store i16 %conv4, ptr %5, align 2
  br label %if.end16

if.else5:                                         ; preds = %if.else
  %6 = load i32, ptr %sz.addr, align 4
  %cmp6 = icmp eq i32 %6, 4
  br i1 %cmp6, label %if.then8, label %if.else10

if.then8:                                         ; preds = %if.else5
  %7 = load i64, ptr %val.addr, align 8
  %conv9 = trunc i64 %7 to i32
  %8 = load ptr, ptr %buf.addr, align 8
  store i32 %conv9, ptr %8, align 4
  br label %if.end15

if.else10:                                        ; preds = %if.else5
  %9 = load i32, ptr %sz.addr, align 4
  %cmp11 = icmp eq i32 %9, 8
  br i1 %cmp11, label %if.then13, label %if.else14

if.then13:                                        ; preds = %if.else10
  %10 = load i64, ptr %val.addr, align 8
  %11 = load ptr, ptr %buf.addr, align 8
  store i64 %10, ptr %11, align 8
  br label %if.end

if.else14:                                        ; preds = %if.else10
  call void (ptr, ...) @error(ptr noundef @.str.70, ptr noundef @.str.71, i32 noundef 1413) #9
  unreachable

if.end:                                           ; preds = %if.then13
  br label %if.end15

if.end15:                                         ; preds = %if.end, %if.then8
  br label %if.end16

if.end16:                                         ; preds = %if.end15, %if.then3
  br label %if.end17

if.end17:                                         ; preds = %if.end16, %if.then
  ret void
}