; Function Attrs: nounwind uwtable
define internal fastcc void @write_buf(ptr nocapture noundef writeonly %buf, i64 noundef %val, i32 noundef %sz) unnamed_addr #0 {
entry:
  switch i32 %sz, label %if.else14 [
    i32 1, label %if.then
    i32 2, label %if.then3
    i32 4, label %if.then8
    i32 8, label %if.then13
  ]

if.then:                                          ; preds = %entry
  %conv = trunc i64 %val to i8
  store i8 %conv, ptr %buf, align 1
  br label %if.end17

if.then3:                                         ; preds = %entry
  %conv4 = trunc i64 %val to i16
  store i16 %conv4, ptr %buf, align 2
  br label %if.end17

if.then8:                                         ; preds = %entry
  %conv9 = trunc i64 %val to i32
  store i32 %conv9, ptr %buf, align 4
  br label %if.end17

if.then13:                                        ; preds = %entry
  store i64 %val, ptr %buf, align 8
  br label %if.end17

if.else14:                                        ; preds = %entry
  tail call void (ptr, ...) @error(ptr noundef nonnull @.str.70, ptr noundef nonnull @.str.71, i32 noundef 1413) #16
  unreachable

if.end17:                                         ; preds = %if.then3, %if.then13, %if.then8, %if.then
  ret void
}